target datalayout = "e-m:e-p270:32:32-p271:32:32-p272:64:64-i64:64-i128:128-f80:128-n8:16:32:64-S128"
target triple = "x86_64-pc-linux-gnu"

%class.LogMessageBuffer = type { ptr, i64, i64, ptr, i64, i64, ptr, i8, i32, ptr }

; Function Attrs: mustprogress nounwind uwtable
define hidden void @_ZN16LogMessageBuffer18initialize_buffersEv(ptr noundef nonnull align 8 dereferenceable(72) %0) #1 align 2 {
  %2 = alloca ptr, align 8
  store ptr %0, ptr %2, align 8
  %3 = load ptr, ptr %2, align 8
  %4 = getelementptr inbounds %class.LogMessageBuffer, ptr %3, i32 0, i32 7
  store i8 1, ptr %4, align 8
  %5 = call noundef ptr @_Z12AllocateHeapm8MEMFLAGSN17AllocFailStrategy13AllocFailEnumE(i64 noundef 1024, i8 noundef zeroext 17, i32 noundef 0)
  %6 = getelementptr inbounds %class.LogMessageBuffer, ptr %3, i32 0, i32 3
  store ptr %5, ptr %6, align 8
  %7 = call noundef ptr @_Z12AllocateHeapm8MEMFLAGSN17AllocFailStrategy13AllocFailEnumE(i64 noundef 160, i8 noundef zeroext 17, i32 noundef 0)
  %8 = getelementptr inbounds %class.LogMessageBuffer, ptr %3, i32 0, i32 6
  store ptr %7, ptr %8, align 8
  %9 = getelementptr inbounds %class.LogMessageBuffer, ptr %3, i32 0, i32 2
  store i64 1024, ptr %9, align 8
  %10 = getelementptr inbounds %class.LogMessageBuffer, ptr %3, i32 0, i32 5
  store i64 10, ptr %10, align 8
  ret void
}