; Function Attrs: mustprogress nounwind uwtable
define hidden void @_ZN16LogMessageBuffer18initialize_buffersEv(ptr nocapture noundef nonnull writeonly align 8 dereferenceable(72) %0) local_unnamed_addr #1 align 2 {
  %2 = getelementptr inbounds i8, ptr %0, i64 56
  store i8 1, ptr %2, align 8
  %3 = tail call noundef ptr @_Z12AllocateHeapm8MEMFLAGSN17AllocFailStrategy13AllocFailEnumE(i64 noundef 1024, i8 noundef zeroext 17, i32 noundef 0) #7
  %4 = getelementptr inbounds i8, ptr %0, i64 24
  store ptr %3, ptr %4, align 8
  %5 = tail call noundef ptr @_Z12AllocateHeapm8MEMFLAGSN17AllocFailStrategy13AllocFailEnumE(i64 noundef 160, i8 noundef zeroext 17, i32 noundef 0) #7
  %6 = getelementptr inbounds i8, ptr %0, i64 48
  store ptr %5, ptr %6, align 8
  %7 = getelementptr inbounds i8, ptr %0, i64 16
  store i64 1024, ptr %7, align 8
  %8 = getelementptr inbounds i8, ptr %0, i64 40
  store i64 10, ptr %8, align 8
  ret void
}